; Function Attrs: nounwind uwtable
define void @col_append_frame_number(ptr noundef readonly captures(none) %0, i32 noundef %1, ptr noundef readonly captures(none) %2, i32 noundef %3) local_unnamed_addr #0 {
  %5 = getelementptr inbounds nuw i8, ptr %0, i64 8
  %6 = load ptr, ptr %5, align 8
  tail call void (ptr, i32, ptr, ...) @col_append_fstr(ptr noundef %6, i32 noundef %1, ptr noundef %2, i32 noundef %3)
  %7 = getelementptr inbounds nuw i8, ptr %0, i64 80
  %8 = load ptr, ptr %7, align 8
  %9 = getelementptr inbounds nuw i8, ptr %8, i64 50
  %10 = load i16, ptr %9, align 2
  %11 = and i16 %10, 8
  %.not = icmp eq i16 %11, 0
  br i1 %.not, label %12, label %13

12:                                               ; preds = %4
  store i1 true, ptr @col_data_changed_, align 4
  br label %13

13:                                               ; preds = %12, %4
  ret void
}